target datalayout = "e-m:e-p270:32:32-p271:32:32-p272:64:64-i64:64-i128:128-f80:128-n8:16:32:64-S128"
target triple = "x86_64-pc-linux-gnu"

%class.ColumnPreferencesFrame = type { %class.QFrame, ptr, ptr, ptr, ptr }
%class.QFrame = type { %class.QWidget }
%class.QWidget = type { %class.QObject, %class.QPaintDevice.base, ptr }
%class.QObject = type { ptr, %class.QScopedPointer }
%class.QScopedPointer = type { ptr }
%class.QPaintDevice.base = type <{ ptr, i16 }>
%class.Ui_ColumnPreferencesFrame = type { ptr, ptr, ptr, ptr, ptr, ptr, ptr }

; Function Attrs: mustprogress uwtable
define void @_ZN22ColumnPreferencesFrame36on_chkShowDisplayedOnly_stateChangedEi(ptr noundef nonnull align 8 dereferenceable(72) %0, i32 noundef %1) #0 align 2 {
  %3 = alloca ptr, align 8
  %4 = alloca i32, align 4
  store ptr %0, ptr %3, align 8
  store i32 %1, ptr %4, align 4
  %5 = load ptr, ptr %3, align 8
  %6 = getelementptr inbounds %class.ColumnPreferencesFrame, ptr %5, i32 0, i32 3
  %7 = load ptr, ptr %6, align 8
  %8 = getelementptr inbounds %class.ColumnPreferencesFrame, ptr %5, i32 0, i32 1
  %9 = load ptr, ptr %8, align 8
  %10 = getelementptr inbounds %class.Ui_ColumnPreferencesFrame, ptr %9, i32 0, i32 5
  %11 = load ptr, ptr %10, align 8
  %12 = call noundef i32 @_ZNK9QCheckBox10checkStateEv(ptr noundef nonnull align 8 dereferenceable(40) %11)
  %13 = icmp eq i32 %12, 2
  %14 = select i1 %13, i1 true, i1 false
  call void @_ZN16ColumnProxyModel20setShowDisplayedOnlyEb(ptr noundef nonnull align 8 dereferenceable(17) %7, i1 noundef zeroext %14)
  ret void
}