; Function Attrs: mustprogress uwtable
define void @_ZN22ColumnPreferencesFrame36on_chkShowDisplayedOnly_stateChangedEi(ptr nocapture noundef nonnull readonly align 8 dereferenceable(72) %0, i32 noundef %1) local_unnamed_addr #0 align 2 {
  %3 = getelementptr inbounds i8, ptr %0, i64 56
  %4 = load ptr, ptr %3, align 8
  %5 = getelementptr inbounds i8, ptr %0, i64 40
  %6 = load ptr, ptr %5, align 8
  %7 = getelementptr inbounds i8, ptr %6, i64 40
  %8 = load ptr, ptr %7, align 8
  %9 = tail call noundef i32 @_ZNK9QCheckBox10checkStateEv(ptr noundef nonnull align 8 dereferenceable(40) %8)
  %10 = icmp eq i32 %9, 2
  tail call void @_ZN16ColumnProxyModel20setShowDisplayedOnlyEb(ptr noundef nonnull align 8 dereferenceable(17) %4, i1 noundef zeroext %10)
  ret void
}